target datalayout = "e-m:e-p270:32:32-p271:32:32-p272:64:64-i64:64-i128:128-f80:128-n8:16:32:64-S128"
target triple = "x86_64-pc-linux-gnu"

%"class.std::shared_ptr" = type { %"class.std::__shared_ptr" }
%"class.std::__shared_ptr" = type { ptr, %"class.std::__shared_count" }
%"class.std::__shared_count" = type { ptr }
%"class.open_spiel::catch_::CatchState" = type { %"class.open_spiel::State.base", i32, i32, i8, i32, i32, i32, [4 x i8] }
%"class.open_spiel::State.base" = type <{ ptr, %"class.std::shared_ptr", i32, i32, %"class.std::vector", i32 }>
%"class.std::vector" = type { %"struct.std::_Vector_base" }
%"struct.std::_Vector_base" = type { %"struct.std::_Vector_base<open_spiel::State::PlayerAction, std::allocator<open_spiel::State::PlayerAction>>::_Vector_impl" }
%"struct.std::_Vector_base<open_spiel::State::PlayerAction, std::allocator<open_spiel::State::PlayerAction>>::_Vector_impl" = type { %"struct.std::_Vector_base<open_spiel::State::PlayerAction, std::allocator<open_spiel::State::PlayerAction>>::_Vector_impl_data" }
%"struct.std::_Vector_base<open_spiel::State::PlayerAction, std::allocator<open_spiel::State::PlayerAction>>::_Vector_impl_data" = type { ptr, ptr, ptr }

; Function Attrs: mustprogress nounwind uwtable
define linkonce_odr noundef nonnull align 4 dereferenceable(4) ptr @_ZSt3minIiERKT_S2_S2_(ptr noundef nonnull align 4 dereferenceable(4) %0, ptr noundef nonnull align 4 dereferenceable(4) %1) #5 comdat {
  %3 = alloca ptr, align 8
  %4 = alloca ptr, align 8
  %5 = alloca ptr, align 8
  store ptr %0, ptr %4, align 8
  store ptr %1, ptr %5, align 8
  %6 = load ptr, ptr %5, align 8
  %7 = load i32, ptr %6, align 4
  %8 = load ptr, ptr %4, align 8
  %9 = load i32, ptr %8, align 4
  %10 = icmp slt i32 %7, %9
  br i1 %10, label %11, label %13

11:                                               ; preds = %2
  %12 = load ptr, ptr %5, align 8
  store ptr %12, ptr %3, align 8
  br label %15

13:                                               ; preds = %2
  %14 = load ptr, ptr %4, align 8
  store ptr %14, ptr %3, align 8
  br label %15

15:                                               ; preds = %13, %11
  %16 = load ptr, ptr %3, align 8
  ret ptr %16
}

; Function Attrs: mustprogress nounwind uwtable
define linkonce_odr noundef nonnull align 4 dereferenceable(4) ptr @_ZSt3maxIiERKT_S2_S2_(ptr noundef nonnull align 4 dereferenceable(4) %0, ptr noundef nonnull align 4 dereferenceable(4) %1) #5 comdat {
  %3 = alloca ptr, align 8
  %4 = alloca ptr, align 8
  %5 = alloca ptr, align 8
  store ptr %0, ptr %4, align 8
  store ptr %1, ptr %5, align 8
  %6 = load ptr, ptr %4, align 8
  %7 = load i32, ptr %6, align 4
  %8 = load ptr, ptr %5, align 8
  %9 = load i32, ptr %8, align 4
  %10 = icmp slt i32 %7, %9
  br i1 %10, label %11, label %13

11:                                               ; preds = %2
  %12 = load ptr, ptr %5, align 8
  store ptr %12, ptr %3, align 8
  br label %15

13:                                               ; preds = %2
  %14 = load ptr, ptr %4, align 8
  store ptr %14, ptr %3, align 8
  br label %15

15:                                               ; preds = %13, %11
  %16 = load ptr, ptr %3, align 8
  ret ptr %16
}

; Function Attrs: mustprogress uwtable
define void @_ZN10open_spiel6catch_10CatchState13DoApplyActionEl(ptr noundef nonnull align 8 dereferenceable(84) %0, i64 noundef %1) unnamed_addr #4 align 2 {
  %3 = alloca ptr, align 8
  %4 = alloca i64, align 8
  %5 = alloca i32, align 4
  %6 = alloca i32, align 4
  %7 = alloca i32, align 4
  %8 = alloca i32, align 4
  store ptr %0, ptr %3, align 8
  store i64 %1, ptr %4, align 8
  %9 = load ptr, ptr %3, align 8
  %10 = getelementptr inbounds nuw %"class.open_spiel::catch_::CatchState", ptr %9, i32 0, i32 3
  %11 = load i8, ptr %10, align 4
  %12 = trunc i8 %11 to i1
  br i1 %12, label %23, label %13

13:                                               ; preds = %2
  %14 = getelementptr inbounds nuw %"class.open_spiel::catch_::CatchState", ptr %9, i32 0, i32 3
  store i8 1, ptr %14, align 4
  %15 = load i64, ptr %4, align 8
  %16 = trunc i64 %15 to i32
  %17 = getelementptr inbounds nuw %"class.open_spiel::catch_::CatchState", ptr %9, i32 0, i32 5
  store i32 %16, ptr %17, align 4
  %18 = getelementptr inbounds nuw %"class.open_spiel::catch_::CatchState", ptr %9, i32 0, i32 4
  store i32 0, ptr %18, align 8
  %19 = getelementptr inbounds nuw %"class.open_spiel::catch_::CatchState", ptr %9, i32 0, i32 2
  %20 = load i32, ptr %19, align 8
  %21 = sdiv i32 %20, 2
  %22 = getelementptr inbounds nuw %"class.open_spiel::catch_::CatchState", ptr %9, i32 0, i32 6
  store i32 %21, ptr %22, align 8
  br label %41

23:                                               ; preds = %2
  %24 = getelementptr inbounds nuw %"class.open_spiel::catch_::CatchState", ptr %9, i32 0, i32 4
  %25 = load i32, ptr %24, align 8
  %26 = add nsw i32 %25, 1
  store i32 %26, ptr %24, align 8
  %27 = load i64, ptr %4, align 8
  %28 = sub nsw i64 %27, 1
  %29 = trunc i64 %28 to i32
  store i32 %29, ptr %5, align 4
  %30 = getelementptr inbounds nuw %"class.open_spiel::catch_::CatchState", ptr %9, i32 0, i32 6
  %31 = load i32, ptr %30, align 8
  %32 = load i32, ptr %5, align 4
  %33 = add nsw i32 %31, %32
  store i32 %33, ptr %6, align 4
  store i32 0, ptr %7, align 4
  %34 = call noundef nonnull align 4 dereferenceable(4) ptr @_ZSt3maxIiERKT_S2_S2_(ptr noundef nonnull align 4 dereferenceable(4) %6, ptr noundef nonnull align 4 dereferenceable(4) %7)
  %35 = getelementptr inbounds nuw %"class.open_spiel::catch_::CatchState", ptr %9, i32 0, i32 2
  %36 = load i32, ptr %35, align 8
  %37 = sub nsw i32 %36, 1
  store i32 %37, ptr %8, align 4
  %38 = call noundef nonnull align 4 dereferenceable(4) ptr @_ZSt3minIiERKT_S2_S2_(ptr noundef nonnull align 4 dereferenceable(4) %34, ptr noundef nonnull align 4 dereferenceable(4) %8)
  %39 = load i32, ptr %38, align 4
  %40 = getelementptr inbounds nuw %"class.open_spiel::catch_::CatchState", ptr %9, i32 0, i32 6
  store i32 %39, ptr %40, align 8
  br label %41

41:                                               ; preds = %23, %13
  ret void
}