; Function Attrs: mustprogress nofree norecurse nosync nounwind willreturn memory(argmem: readwrite) uwtable
define void @_ZN10open_spiel6catch_10CatchState13DoApplyActionEl(ptr nocapture noundef nonnull align 8 dereferenceable(84) %0, i64 noundef %1) unnamed_addr #11 align 2 {
  %3 = getelementptr inbounds nuw i8, ptr %0, i64 68
  %4 = load i8, ptr %3, align 4
  %5 = trunc i8 %4 to i1
  br i1 %5, label %14, label %6

6:                                                ; preds = %2
  store i8 1, ptr %3, align 4
  %7 = trunc i64 %1 to i32
  %8 = getelementptr inbounds nuw i8, ptr %0, i64 76
  store i32 %7, ptr %8, align 4
  %9 = getelementptr inbounds nuw i8, ptr %0, i64 72
  store i32 0, ptr %9, align 8
  %10 = getelementptr inbounds nuw i8, ptr %0, i64 64
  %11 = load i32, ptr %10, align 8
  %12 = sdiv i32 %11, 2
  %13 = getelementptr inbounds nuw i8, ptr %0, i64 80
  store i32 %12, ptr %13, align 8
  br label %26

14:                                               ; preds = %2
  %15 = getelementptr inbounds nuw i8, ptr %0, i64 72
  %16 = load i32, ptr %15, align 8
  %17 = add nsw i32 %16, 1
  store i32 %17, ptr %15, align 8
  %18 = trunc i64 %1 to i32
  %19 = add i32 %18, -1
  %20 = getelementptr inbounds nuw i8, ptr %0, i64 80
  %21 = load i32, ptr %20, align 8
  %22 = add nsw i32 %19, %21
  %23 = getelementptr inbounds nuw i8, ptr %0, i64 64
  %24 = load i32, ptr %23, align 8
  %25 = add nsw i32 %24, -1
  %.sroa.speculated5 = tail call i32 @llvm.smax.i32(i32 %22, i32 0)
  %.sroa.speculated = tail call i32 @llvm.smin.i32(i32 %25, i32 %.sroa.speculated5)
  store i32 %.sroa.speculated, ptr %20, align 8
  br label %26

26:                                               ; preds = %14, %6
  ret void
}